target datalayout = "e-m:e-p270:32:32-p271:32:32-p272:64:64-i64:64-i128:128-f80:128-n8:16:32:64-S128"
target triple = "x86_64-pc-linux-gnu"

%union.UElement = type { ptr }

; Function Attrs: mustprogress nounwind uwtable
define signext i8 @uhash_compareLong_77(ptr %0, ptr %1) #2 {
  %3 = alloca %union.UElement, align 8
  %4 = alloca %union.UElement, align 8
  %5 = getelementptr inbounds nuw %union.UElement, ptr %3, i32 0, i32 0
  store ptr %0, ptr %5, align 8
  %6 = getelementptr inbounds nuw %union.UElement, ptr %4, i32 0, i32 0
  store ptr %1, ptr %6, align 8
  %7 = load i32, ptr %3, align 8, !tbaa !27
  %8 = load i32, ptr %4, align 8, !tbaa !27
  %9 = icmp eq i32 %7, %8
  %10 = zext i1 %9 to i8
  ret i8 %10
}